target datalayout = "e-m:e-p270:32:32-p271:32:32-p272:64:64-i64:64-i128:128-f80:128-n8:16:32:64-S128"
target triple = "x86_64-pc-linux-gnu"

@crv_len = internal global i64 0, align 8
@.str = private unnamed_addr constant [35 x i8] c"../openssl/test/ec_internal_test.c\00", align 1
@.str.1 = private unnamed_addr constant [51 x i8] c"curves = OPENSSL_malloc(sizeof(*curves) * crv_len)\00", align 1
@curves = internal global ptr null, align 8
@.str.2 = private unnamed_addr constant [39 x i8] c"EC_get_builtin_curves(curves, crv_len)\00", align 1
@.str.3 = private unnamed_addr constant [23 x i8] c"field_tests_ecp_simple\00", align 1
@.str.4 = private unnamed_addr constant [21 x i8] c"field_tests_ecp_mont\00", align 1
@.str.5 = private unnamed_addr constant [18 x i8] c"ec2m_field_sanity\00", align 1
@.str.6 = private unnamed_addr constant [23 x i8] c"field_tests_ec2_simple\00", align 1
@.str.7 = private unnamed_addr constant [20 x i8] c"field_tests_default\00", align 1
@.str.8 = private unnamed_addr constant [16 x i8] c"set_private_key\00", align 1
@.str.9 = private unnamed_addr constant [18 x i8] c"decoded_flag_test\00", align 1
@.str.10 = private unnamed_addr constant [22 x i8] c"ecpkparams_i2d2i_test\00", align 1
@.str.11 = private unnamed_addr constant [26 x i8] c"named_group_creation_test\00", align 1

; Function Attrs: nounwind uwtable
define dso_local i32 @setup_tests() #0 {
  %1 = alloca i32, align 4
  %2 = call i64 @EC_get_builtin_curves(ptr noundef null, i64 noundef 0)
  store i64 %2, ptr @crv_len, align 8, !tbaa !4
  %3 = load i64, ptr @crv_len, align 8, !tbaa !4
  %4 = mul i64 16, %3
  %5 = call noalias ptr @CRYPTO_malloc(i64 noundef %4, ptr noundef @.str, i32 noundef 552)
  store ptr %5, ptr @curves, align 8, !tbaa !8
  %6 = call i32 @test_ptr(ptr noundef @.str, i32 noundef 552, ptr noundef @.str.1, ptr noundef %5)
  %7 = icmp ne i32 %6, 0
  br i1 %7, label %8, label %16

8:                                                ; preds = %0
  %9 = load ptr, ptr @curves, align 8, !tbaa !8
  %10 = load i64, ptr @crv_len, align 8, !tbaa !4
  %11 = call i64 @EC_get_builtin_curves(ptr noundef %9, i64 noundef %10)
  %12 = icmp ne i64 %11, 0
  %13 = zext i1 %12 to i32
  %14 = call i32 @test_true(ptr noundef @.str, i32 noundef 553, ptr noundef @.str.2, i32 noundef %13)
  %15 = icmp ne i32 %14, 0
  br i1 %15, label %17, label %16

16:                                               ; preds = %8, %0
  store i32 0, ptr %1, align 4
  br label %22

17:                                               ; preds = %8
  call void @add_test(ptr noundef @.str.3, ptr noundef @field_tests_ecp_simple)
  call void @add_test(ptr noundef @.str.4, ptr noundef @field_tests_ecp_mont)
  call void @add_test(ptr noundef @.str.5, ptr noundef @ec2m_field_sanity)
  call void @add_test(ptr noundef @.str.6, ptr noundef @field_tests_ec2_simple)
  %18 = load i64, ptr @crv_len, align 8, !tbaa !4
  %19 = trunc i64 %18 to i32
  call void @add_all_tests(ptr noundef @.str.7, ptr noundef @field_tests_default, i32 noundef %19, i32 noundef 1)
  call void @add_test(ptr noundef @.str.8, ptr noundef @set_private_key)
  call void @add_test(ptr noundef @.str.9, ptr noundef @decoded_flag_test)
  %20 = load i64, ptr @crv_len, align 8, !tbaa !4
  %21 = trunc i64 %20 to i32
  call void @add_all_tests(ptr noundef @.str.10, ptr noundef @ecpkparams_i2d2i_test, i32 noundef %21, i32 noundef 1)
  call void @add_test(ptr noundef @.str.11, ptr noundef @named_group_creation_test)
  store i32 1, ptr %1, align 4
  br label %22

22:                                               ; preds = %17, %16
  %23 = load i32, ptr %1, align 4
  ret i32 %23
}