; Function Attrs: nounwind uwtable
define dso_local range(i32 0, 2) i32 @setup_tests() local_unnamed_addr #0 {
  %1 = tail call i64 @EC_get_builtin_curves(ptr noundef null, i64 noundef 0) #4
  store i64 %1, ptr @crv_len, align 8, !tbaa !4
  %2 = shl i64 %1, 4
  %3 = tail call noalias ptr @CRYPTO_malloc(i64 noundef %2, ptr noundef nonnull @.str, i32 noundef 552) #4
  store ptr %3, ptr @curves, align 8, !tbaa !8
  %4 = tail call i32 @test_ptr(ptr noundef nonnull @.str, i32 noundef 552, ptr noundef nonnull @.str.1, ptr noundef %3) #4
  %.not = icmp eq i32 %4, 0
  br i1 %.not, label %17, label %5

5:                                                ; preds = %0
  %6 = load ptr, ptr @curves, align 8, !tbaa !8
  %7 = load i64, ptr @crv_len, align 8, !tbaa !4
  %8 = tail call i64 @EC_get_builtin_curves(ptr noundef %6, i64 noundef %7) #4
  %9 = icmp ne i64 %8, 0
  %10 = zext i1 %9 to i32
  %11 = tail call i32 @test_true(ptr noundef nonnull @.str, i32 noundef 553, ptr noundef nonnull @.str.2, i32 noundef %10) #4
  %.not1 = icmp eq i32 %11, 0
  br i1 %.not1, label %17, label %12

12:                                               ; preds = %5
  tail call void @add_test(ptr noundef nonnull @.str.3, ptr noundef nonnull @field_tests_ecp_simple) #4
  tail call void @add_test(ptr noundef nonnull @.str.4, ptr noundef nonnull @field_tests_ecp_mont) #4
  tail call void @add_test(ptr noundef nonnull @.str.5, ptr noundef nonnull @ec2m_field_sanity) #4
  tail call void @add_test(ptr noundef nonnull @.str.6, ptr noundef nonnull @field_tests_ec2_simple) #4
  %13 = load i64, ptr @crv_len, align 8, !tbaa !4
  %14 = trunc i64 %13 to i32
  tail call void @add_all_tests(ptr noundef nonnull @.str.7, ptr noundef nonnull @field_tests_default, i32 noundef %14, i32 noundef 1) #4
  tail call void @add_test(ptr noundef nonnull @.str.8, ptr noundef nonnull @set_private_key) #4
  tail call void @add_test(ptr noundef nonnull @.str.9, ptr noundef nonnull @decoded_flag_test) #4
  %15 = load i64, ptr @crv_len, align 8, !tbaa !4
  %16 = trunc i64 %15 to i32
  tail call void @add_all_tests(ptr noundef nonnull @.str.10, ptr noundef nonnull @ecpkparams_i2d2i_test, i32 noundef %16, i32 noundef 1) #4
  tail call void @add_test(ptr noundef nonnull @.str.11, ptr noundef nonnull @named_group_creation_test) #4
  br label %17

17:                                               ; preds = %0, %5, %12
  %.0 = phi i32 [ 1, %12 ], [ 0, %5 ], [ 0, %0 ]
  ret i32 %.0
}